ccopy_reg
_reconstructor
p0
(cgoogle.oauth2.credentials
Credentials
p1
c__builtin__
object
p2
Ntp3
Rp4
(dp5
S'_token_uri'
p6
Vhttps://oauth2.googleapis.com/token
p7
sS'_client_secret'
p8
VKGnjoqur5DlNi2FoiivQKCut
p9
sS'_id_token'
p10
NsS'token'
p11
Vya29.GluDB-mI5a_-F0ziXJQ_Xaeyc666TBjwlWNHiCt0l-8WkUUELDBLpmDs__xNqtJsdttrb0eHWGsc9U9GVZaSgN_O6hI2uVtqVB-UsvIRLChspzQjoe2xxiCZHYDR
p12
sS'_refresh_token'
p13
V1/A2LaJ1tWWBL0776dE9Fi4ksQgevYqd2Oe0rCFvQTAQ0
p14
sS'_scopes'
p15
(lp16
S'https://www.googleapis.com/auth/spreadsheets.readonly'
p17
asS'_client_id'
p18
V323100236960-3v73dgo41rbn7uiqeiipslv8okikmpct.apps.googleusercontent.com
p19
sS'expiry'
p20
cdatetime
datetime
p21
(S'\x07\xe3\t\x0e\x15\x14\x18\x00\x948'
p22
tp23
Rp24
sb.